target datalayout = "e-m:e-p270:32:32-p271:32:32-p272:64:64-i64:64-i128:128-f80:128-n8:16:32:64-S128"
target triple = "x86_64-pc-linux-gnu"

%struct.Fra_Par_t_ = type { i32, double, i32, i32, double, double, i32, i32, i32, i32, i32, i32, i32, i32, i32, i32, i32, i32, i32, i32, i32, i32, i32, i32, i32 }

; Function Attrs: nounwind uwtable
define ptr @Abc_NtkDarFraig(ptr noundef %0, i32 noundef %1, i32 noundef %2, i32 noundef %3, i32 noundef %4, i32 noundef %5, i32 noundef %6, i32 noundef %7) #0 {
  %9 = alloca ptr, align 8
  %10 = alloca ptr, align 8
  %11 = alloca i32, align 4
  %12 = alloca i32, align 4
  %13 = alloca i32, align 4
  %14 = alloca i32, align 4
  %15 = alloca i32, align 4
  %16 = alloca i32, align 4
  %17 = alloca i32, align 4
  %18 = alloca %struct.Fra_Par_t_, align 8
  %19 = alloca ptr, align 8
  %20 = alloca ptr, align 8
  %21 = alloca ptr, align 8
  %22 = alloca ptr, align 8
  store ptr %0, ptr %10, align 8
  store i32 %1, ptr %11, align 4
  store i32 %2, ptr %12, align 4
  store i32 %3, ptr %13, align 4
  store i32 %4, ptr %14, align 4
  store i32 %5, ptr %15, align 4
  store i32 %6, ptr %16, align 4
  store i32 %7, ptr %17, align 4
  store ptr %18, ptr %19, align 8
  %23 = load ptr, ptr %10, align 8
  %24 = call ptr @Abc_NtkToDar(ptr noundef %23, i32 noundef 0, i32 noundef 0)
  store ptr %24, ptr %21, align 8
  %25 = load ptr, ptr %21, align 8
  %26 = icmp eq ptr %25, null
  br i1 %26, label %27, label %28

27:                                               ; preds = %8
  store ptr null, ptr %9, align 8
  br label %65

28:                                               ; preds = %8
  %29 = load ptr, ptr %19, align 8
  call void @Fra_ParamsDefault(ptr noundef %29)
  %30 = load i32, ptr %11, align 4
  %31 = load ptr, ptr %19, align 8
  %32 = getelementptr inbounds %struct.Fra_Par_t_, ptr %31, i32 0, i32 12
  store i32 %30, ptr %32, align 8
  %33 = load i32, ptr %16, align 4
  %34 = load ptr, ptr %19, align 8
  %35 = getelementptr inbounds %struct.Fra_Par_t_, ptr %34, i32 0, i32 6
  store i32 %33, ptr %35, align 8
  %36 = load i32, ptr %12, align 4
  %37 = load ptr, ptr %19, align 8
  %38 = getelementptr inbounds %struct.Fra_Par_t_, ptr %37, i32 0, i32 10
  store i32 %36, ptr %38, align 8
  %39 = load i32, ptr %15, align 4
  %40 = load ptr, ptr %19, align 8
  %41 = getelementptr inbounds %struct.Fra_Par_t_, ptr %40, i32 0, i32 7
  store i32 %39, ptr %41, align 4
  %42 = load i32, ptr %13, align 4
  %43 = load ptr, ptr %19, align 8
  %44 = getelementptr inbounds %struct.Fra_Par_t_, ptr %43, i32 0, i32 8
  store i32 %42, ptr %44, align 8
  %45 = load i32, ptr %17, align 4
  %46 = load ptr, ptr %19, align 8
  %47 = getelementptr inbounds %struct.Fra_Par_t_, ptr %46, i32 0, i32 9
  store i32 %45, ptr %47, align 4
  %48 = load ptr, ptr %21, align 8
  store ptr %48, ptr %22, align 8
  %49 = load ptr, ptr %19, align 8
  %50 = call ptr @Fra_FraigPerform(ptr noundef %48, ptr noundef %49)
  store ptr %50, ptr %21, align 8
  %51 = load i32, ptr %16, align 4
  %52 = icmp ne i32 %51, 0
  br i1 %52, label %53, label %57

53:                                               ; preds = %28
  %54 = load ptr, ptr %10, align 8
  %55 = load ptr, ptr %21, align 8
  %56 = call ptr @Abc_NtkFromDarChoices(ptr noundef %54, ptr noundef %55)
  store ptr %56, ptr %20, align 8
  br label %61

57:                                               ; preds = %28
  %58 = load ptr, ptr %10, align 8
  %59 = load ptr, ptr %21, align 8
  %60 = call ptr @Abc_NtkFromDar(ptr noundef %58, ptr noundef %59)
  store ptr %60, ptr %20, align 8
  br label %61

61:                                               ; preds = %57, %53
  %62 = load ptr, ptr %22, align 8
  call void @Aig_ManStop(ptr noundef %62)
  %63 = load ptr, ptr %21, align 8
  call void @Aig_ManStop(ptr noundef %63)
  %64 = load ptr, ptr %20, align 8
  store ptr %64, ptr %9, align 8
  br label %65

65:                                               ; preds = %61, %27
  %66 = load ptr, ptr %9, align 8
  ret ptr %66
}