; Function Attrs: nounwind uwtable
define ptr @Abc_NtkDarFraig(ptr noundef %0, i32 noundef %1, i32 noundef %2, i32 noundef %3, i32 noundef %4, i32 noundef %5, i32 noundef %6, i32 noundef %7) local_unnamed_addr #1 {
  %9 = alloca %struct.Fra_Par_t_, align 8
  %10 = tail call ptr @Abc_NtkToDar(ptr noundef %0, i32 noundef 0, i32 noundef 0)
  %11 = icmp eq ptr %10, null
  br i1 %11, label %25, label %12

12:                                               ; preds = %8
  call void @Fra_ParamsDefault(ptr noundef nonnull %9) #19
  %13 = getelementptr inbounds nuw i8, ptr %9, i64 64
  store i32 %1, ptr %13, align 8
  %14 = getelementptr inbounds nuw i8, ptr %9, i64 40
  store i32 %6, ptr %14, align 8
  %15 = getelementptr inbounds nuw i8, ptr %9, i64 56
  store i32 %2, ptr %15, align 8
  %16 = getelementptr inbounds nuw i8, ptr %9, i64 44
  store i32 %5, ptr %16, align 4
  %17 = getelementptr inbounds nuw i8, ptr %9, i64 48
  store i32 %3, ptr %17, align 8
  %18 = getelementptr inbounds nuw i8, ptr %9, i64 52
  store i32 %7, ptr %18, align 4
  %19 = call ptr @Fra_FraigPerform(ptr noundef nonnull %10, ptr noundef nonnull %9) #19
  %.not = icmp eq i32 %6, 0
  br i1 %.not, label %22, label %20

20:                                               ; preds = %12
  %21 = call ptr @Abc_NtkFromDarChoices(ptr noundef %0, ptr noundef %19)
  br label %24

22:                                               ; preds = %12
  %23 = call ptr @Abc_NtkFromDar(ptr noundef %0, ptr noundef %19)
  br label %24

24:                                               ; preds = %22, %20
  %.025 = phi ptr [ %21, %20 ], [ %23, %22 ]
  call void @Aig_ManStop(ptr noundef nonnull %10) #19
  call void @Aig_ManStop(ptr noundef %19) #19
  br label %25

25:                                               ; preds = %8, %24
  %.0 = phi ptr [ %.025, %24 ], [ null, %8 ]
  ret ptr %.0
}